target datalayout = "e-m:e-p270:32:32-p271:32:32-p272:64:64-i64:64-i128:128-f80:128-n8:16:32:64-S128"
target triple = "x86_64-pc-linux-gnu"

%"class.sls::smt_solver" = type { ptr, %"class.sat::ddfw", ptr, %class.ref_vector, %class.statistics }
%"class.sat::ddfw" = type <{ %"struct.sat::ddfw::config", %class.reslimit, %class.vector.1, %class.svector.2, %class.svector.4, %class.svector.6, %class.svector.6, %class.svector.8, i32, [4 x i8], %class.vector.10, %class.svector.11, %class.svector.11, i32, i32, i32, [4 x i8], %class.indexed_uint_set, %class.indexed_uint_set, %class.random_gen, [4 x i8], i64, i32, i32, i32, i32, i64, i64, i64, i64, i64, i32, i32, %class.u_map, %class.stopwatch, %class.svector.11, i8, [7 x i8], %class.scoped_ptr, %"class.std::function", i32, [4 x i8], %class.tracked_uint_set, %class.svector.11, i8, i8, [6 x i8] }>
%"struct.sat::ddfw::config" = type { i32, i32, i32, i32, i32, i32, double }
%class.reslimit = type { %"struct.std::atomic", i8, i64, i64, %class.svector, %class.ptr_vector }
%"struct.std::atomic" = type { %"struct.std::__atomic_base" }
%"struct.std::__atomic_base" = type { i32 }
%class.svector = type { %class.vector }
%class.vector = type { ptr }
%class.ptr_vector = type { %class.vector.0 }
%class.vector.0 = type { ptr }
%class.vector.1 = type { ptr }
%class.svector.2 = type { %class.vector.3 }
%class.vector.3 = type { ptr }
%class.svector.4 = type { %class.vector.5 }
%class.vector.5 = type { ptr }
%class.svector.6 = type { %class.vector.7 }
%class.vector.7 = type { ptr }
%class.svector.8 = type { %class.vector.9 }
%class.vector.9 = type { ptr }
%class.vector.10 = type { ptr }
%class.indexed_uint_set = type { i32, %class.svector.11, %class.svector.11 }
%class.random_gen = type { i32 }
%class.u_map = type { %class.map }
%class.map = type { %class.table2map }
%class.table2map = type { %class.core_hashtable }
%class.core_hashtable = type <{ ptr, i32, i32, i32, [4 x i8] }>
%class.stopwatch = type <{ %"class.std::chrono::time_point", %"class.std::chrono::duration", i8, [7 x i8] }>
%"class.std::chrono::time_point" = type { %"class.std::chrono::duration" }
%"class.std::chrono::duration" = type { i64 }
%class.scoped_ptr = type { ptr }
%"class.std::function" = type { %"class.std::_Function_base", ptr }
%"class.std::_Function_base" = type { %"union.std::_Any_data", ptr }
%"union.std::_Any_data" = type { %"union.std::_Nocopy_types" }
%"union.std::_Nocopy_types" = type { { i64, i64 } }
%class.tracked_uint_set = type { %class.svector.13, %class.svector.11 }
%class.svector.13 = type { %class.vector.14 }
%class.vector.14 = type { ptr }
%class.svector.11 = type { %class.vector.12 }
%class.vector.12 = type { ptr }
%class.ref_vector = type { %class.ref_vector_core }
%class.ref_vector_core = type { %class.ref_manager_wrapper, %class.ptr_vector.15 }
%class.ref_manager_wrapper = type { ptr }
%class.ptr_vector.15 = type { %class.vector.16 }
%class.vector.16 = type { ptr }
%class.statistics = type { %class.svector.17, %class.svector.19 }
%class.svector.17 = type { %class.vector.18 }
%class.vector.18 = type { ptr }
%class.svector.19 = type { %class.vector.20 }
%class.vector.20 = type { ptr }
%"class.sls::smt_solver::solver_ctx" = type <{ %"class.sat::local_search_plugin", %"class.sls::sat_solver_context", ptr, ptr, %"class.sls::context", i8, i8, [6 x i8], %class.ref, %class.obj_map.48, i8, [7 x i8] }>
%"class.sat::local_search_plugin" = type { ptr }
%"class.sls::sat_solver_context" = type { ptr }
%"class.sls::context" = type <{ ptr, ptr, %class.scoped_ptr_vector, %class.indexed_uint_set, %class.indexed_uint_set, %class.ref_vector, %class.svector.11, %class.params_ref, %class.vector.46, %class.svector.2, %class.svector.2, %class.indexed_uint_set, %class.random_gen, i8, i8, i8, i8, %class.ref_vector, %class.ref_vector, %class.ptr_vector.15, %"struct.sls::context::greater_depth", %"struct.sls::context::less_depth", %class.heap, %class.heap.47, %class.uint_set, %class.ref_vector, %"struct.sls::context::stats", [4 x i8], %class.ref_vector, i8, [7 x i8] }>
%class.scoped_ptr_vector = type { %class.ptr_vector.44 }
%class.ptr_vector.44 = type { %class.vector.45 }
%class.vector.45 = type { ptr }
%class.params_ref = type { ptr }
%class.vector.46 = type { ptr }
%"struct.sls::context::greater_depth" = type { ptr }
%"struct.sls::context::less_depth" = type { ptr }
%class.heap = type { %"struct.sls::context::greater_depth", %class.svector.24, %class.svector.24 }
%class.svector.24 = type { %class.vector.25 }
%class.vector.25 = type { ptr }
%class.heap.47 = type { %"struct.sls::context::less_depth", %class.svector.24, %class.svector.24 }
%class.uint_set = type { %class.svector.11 }
%"struct.sls::context::stats" = type { i32, i32, i32 }
%class.ref = type { ptr }
%class.obj_map.48 = type { %class.core_hashtable.49 }
%class.core_hashtable.49 = type <{ ptr, i32, i32, i32, [4 x i8] }>
%class.model_core = type { ptr, ptr, i32, [4 x i8], %class.obj_map.53, %class.obj_map.58, %class.ptr_vector.63, %class.ptr_vector.63, %class.ptr_vector.63 }
%class.obj_map.53 = type { %class.core_hashtable.54 }
%class.core_hashtable.54 = type <{ ptr, i32, i32, i32, [4 x i8] }>
%class.obj_map.58 = type { %class.core_hashtable.59 }
%class.core_hashtable.59 = type <{ ptr, i32, i32, i32, [4 x i8] }>
%class.ptr_vector.63 = type { %class.vector.64 }
%class.vector.64 = type { ptr }

; Function Attrs: mustprogress nounwind uwtable
define linkonce_odr hidden void @_ZN10model_core7inc_refEv(ptr noundef nonnull align 8 dereferenceable(96) %0) #6 comdat align 2 {
  %2 = alloca ptr, align 8
  store ptr %0, ptr %2, align 8, !tbaa !315
  %3 = load ptr, ptr %2, align 8
  %4 = getelementptr inbounds nuw %class.model_core, ptr %3, i32 0, i32 2
  %5 = load i32, ptr %4, align 8, !tbaa !317
  %6 = add i32 %5, 1
  store i32 %6, ptr %4, align 8, !tbaa !317
  ret void
}

; Function Attrs: mustprogress uwtable
define linkonce_odr hidden void @_ZN3refI5modelE7inc_refEv(ptr noundef nonnull align 8 dereferenceable(8) %0) #4 comdat align 2 {
  %2 = alloca ptr, align 8
  store ptr %0, ptr %2, align 8, !tbaa !278
  %3 = load ptr, ptr %2, align 8
  %4 = getelementptr inbounds nuw %class.ref, ptr %3, i32 0, i32 0
  %5 = load ptr, ptr %4, align 8, !tbaa !280
  %6 = icmp ne ptr %5, null
  br i1 %6, label %7, label %10

7:                                                ; preds = %1
  %8 = getelementptr inbounds nuw %class.ref, ptr %3, i32 0, i32 0
  %9 = load ptr, ptr %8, align 8, !tbaa !280
  call void @_ZN10model_core7inc_refEv(ptr noundef nonnull align 8 dereferenceable(96) %9)
  br label %10

10:                                               ; preds = %7, %1
  ret void
}

; Function Attrs: mustprogress uwtable
define linkonce_odr hidden void @_ZN3refI5modelEC2ERKS1_(ptr noundef nonnull align 8 dereferenceable(8) %0, ptr noundef nonnull align 8 dereferenceable(8) %1) unnamed_addr #4 comdat align 2 {
  %3 = alloca ptr, align 8
  %4 = alloca ptr, align 8
  store ptr %0, ptr %3, align 8, !tbaa !278
  store ptr %1, ptr %4, align 8, !tbaa !278
  %5 = load ptr, ptr %3, align 8
  %6 = getelementptr inbounds nuw %class.ref, ptr %5, i32 0, i32 0
  %7 = load ptr, ptr %4, align 8, !tbaa !278
  %8 = getelementptr inbounds nuw %class.ref, ptr %7, i32 0, i32 0
  %9 = load ptr, ptr %8, align 8, !tbaa !280
  store ptr %9, ptr %6, align 8, !tbaa !280
  call void @_ZN3refI5modelE7inc_refEv(ptr noundef nonnull align 8 dereferenceable(8) %5)
  ret void
}

; Function Attrs: mustprogress uwtable
define linkonce_odr hidden void @_ZN3sls10smt_solver10solver_ctx9get_modelEv(ptr dead_on_unwind noalias writable sret(%class.ref) align 8 %0, ptr noundef nonnull align 8 dereferenceable(401) %1) #4 comdat align 2 {
  %3 = alloca ptr, align 8
  %4 = alloca ptr, align 8
  store ptr %0, ptr %3, align 8
  store ptr %1, ptr %4, align 8, !tbaa !103
  %5 = load ptr, ptr %4, align 8
  %6 = getelementptr inbounds nuw %"class.sls::smt_solver::solver_ctx", ptr %5, i32 0, i32 8
  call void @_ZN3refI5modelEC2ERKS1_(ptr noundef nonnull align 8 dereferenceable(8) %0, ptr noundef nonnull align 8 dereferenceable(8) %6)
  ret void
}

; Function Attrs: mustprogress uwtable
define hidden void @_ZN3sls10smt_solver9get_modelEv(ptr dead_on_unwind noalias writable sret(%class.ref) align 8 %0, ptr noundef nonnull align 8 dereferenceable(488) %1) #4 align 2 {
  %3 = alloca ptr, align 8
  %4 = alloca ptr, align 8
  store ptr %0, ptr %3, align 8
  store ptr %1, ptr %4, align 8, !tbaa !3
  %5 = load ptr, ptr %4, align 8
  %6 = getelementptr inbounds nuw %"class.sls::smt_solver", ptr %5, i32 0, i32 2
  %7 = load ptr, ptr %6, align 8, !tbaa !12
  call void @_ZN3sls10smt_solver10solver_ctx9get_modelEv(ptr dead_on_unwind writable sret(%class.ref) align 8 %0, ptr noundef nonnull align 8 dereferenceable(401) %7)
  ret void
}