; Function Attrs: mustprogress nofree norecurse nosync nounwind willreturn uwtable
define hidden void @_ZN3sls10smt_solver9get_modelEv(ptr dead_on_unwind noalias writable writeonly sret(%class.ref) align 8 captures(none) initializes((0, 8)) %0, ptr noundef nonnull readonly align 8 captures(none) dereferenceable(488) %1) local_unnamed_addr #7 align 2 {
  %3 = getelementptr inbounds nuw i8, ptr %1, i64 448
  %4 = load ptr, ptr %3, align 8, !tbaa !8
  tail call void @llvm.experimental.noalias.scope.decl(metadata !171)
  %5 = getelementptr inbounds nuw i8, ptr %4, i64 368
  %6 = load ptr, ptr %5, align 8, !tbaa !135, !noalias !171
  store ptr %6, ptr %0, align 8, !tbaa !135, !alias.scope !171
  %.not.i.i.i = icmp eq ptr %6, null
  br i1 %.not.i.i.i, label %_ZN3sls10smt_solver10solver_ctx9get_modelEv.exit, label %7

7:                                                ; preds = %2
  %8 = getelementptr inbounds nuw i8, ptr %6, i64 16
  %9 = load i32, ptr %8, align 8, !tbaa !174, !noalias !171
  %10 = add i32 %9, 1
  store i32 %10, ptr %8, align 8, !tbaa !174, !noalias !171
  br label %_ZN3sls10smt_solver10solver_ctx9get_modelEv.exit

_ZN3sls10smt_solver10solver_ctx9get_modelEv.exit: ; preds = %2, %7
  ret void
}